; ModuleID = '20/573.c'
source_filename = "20/573.c"
target datalayout = "e-m:e-p270:32:32-p271:32:32-p272:64:64-i64:64-f80:128-n8:16:32:64-S128"
target triple = "x86_64-pc-linux-gnu"

@.str = private unnamed_addr constant [3 x i8] c"%s\00", align 1
@.str.1 = private unnamed_addr constant [3 x i8] c"%c\00", align 1
@.str.2 = private unnamed_addr constant [2 x i8] c"\0A\00", align 1

; Function Attrs: noinline nounwind uwtable
define dso_local void @main() #0 {
  %1 = alloca i32, align 4
  %2 = alloca [1000 x i8], align 16
  %3 = alloca [1000 x i8], align 16
  %4 = alloca i8*, align 8
  %5 = alloca i8*, align 8
  %6 = alloca i8*, align 8
  %7 = alloca i8*, align 8
  %8 = alloca i8, align 1
  br label %9

9:                                                ; preds = %97, %0
  %10 = getelementptr inbounds [1000 x i8], [1000 x i8]* %2, i64 0, i64 0
  %11 = call i32 (i8*, ...) @__isoc99_scanf(i8* getelementptr inbounds ([3 x i8], [3 x i8]* @.str, i64 0, i64 0), i8* %10)
  %12 = icmp ne i32 %11, -1
  br i1 %12, label %13, label %99

13:                                               ; preds = %9
  %14 = getelementptr inbounds [1000 x i8], [1000 x i8]* %3, i64 0, i64 0
  %15 = call i32 (i8*, ...) bitcast (i32 (...)* @gets to i32 (i8*, ...)*)(i8* %14)
  %16 = getelementptr inbounds [1000 x i8], [1000 x i8]* %2, i64 0, i64 0
  %17 = call i64 @strlen(i8* %16) #3
  %18 = trunc i64 %17 to i32
  store i32 %18, i32* %1, align 4
  %19 = getelementptr inbounds [1000 x i8], [1000 x i8]* %3, i64 0, i64 0
  store i8* %19, i8** %6, align 8
  %20 = getelementptr inbounds [1000 x i8], [1000 x i8]* %2, i64 0, i64 0
  store i8* %20, i8** %5, align 8
  %21 = getelementptr inbounds [1000 x i8], [1000 x i8]* %2, i64 0, i64 0
  %22 = load i8, i8* %21, align 16
  store i8 %22, i8* %8, align 1
  %23 = getelementptr inbounds [1000 x i8], [1000 x i8]* %2, i64 0, i64 0
  store i8* %23, i8** %4, align 8
  br label %24

24:                                               ; preds = %43, %13
  %25 = load i8*, i8** %4, align 8
  %26 = getelementptr inbounds [1000 x i8], [1000 x i8]* %2, i64 0, i64 0
  %27 = load i32, i32* %1, align 4
  %28 = sext i32 %27 to i64
  %29 = getelementptr inbounds i8, i8* %26, i64 %28
  %30 = icmp ult i8* %25, %29
  br i1 %30, label %31, label %46

31:                                               ; preds = %24
  %32 = load i8, i8* %8, align 1
  %33 = sext i8 %32 to i32
  %34 = load i8*, i8** %4, align 8
  %35 = load i8, i8* %34, align 1
  %36 = sext i8 %35 to i32
  %37 = icmp slt i32 %33, %36
  br i1 %37, label %38, label %42

38:                                               ; preds = %31
  %39 = load i8*, i8** %4, align 8
  %40 = load i8, i8* %39, align 1
  store i8 %40, i8* %8, align 1
  %41 = load i8*, i8** %4, align 8
  store i8* %41, i8** %7, align 8
  br label %42

42:                                               ; preds = %38, %31
  br label %43

43:                                               ; preds = %42
  %44 = load i8*, i8** %4, align 8
  %45 = getelementptr inbounds i8, i8* %44, i32 1
  store i8* %45, i8** %4, align 8
  br label %24

46:                                               ; preds = %24
  br label %47

47:                                               ; preds = %94, %46
  %48 = load i8*, i8** %5, align 8
  %49 = getelementptr inbounds [1000 x i8], [1000 x i8]* %2, i64 0, i64 0
  %50 = load i32, i32* %1, align 4
  %51 = sext i32 %50 to i64
  %52 = getelementptr inbounds i8, i8* %49, i64 %51
  %53 = icmp ult i8* %48, %52
  br i1 %53, label %54, label %97

54:                                               ; preds = %47
  %55 = load i8*, i8** %5, align 8
  %56 = load i8*, i8** %7, align 8
  %57 = icmp eq i8* %55, %56
  br i1 %57, label %58, label %84

58:                                               ; preds = %54
  %59 = load i8*, i8** %5, align 8
  %60 = load i8, i8* %59, align 1
  %61 = sext i8 %60 to i32
  %62 = call i32 (i8*, ...) @printf(i8* getelementptr inbounds ([3 x i8], [3 x i8]* @.str.1, i64 0, i64 0), i32 %61)
  br label %63

63:                                               ; preds = %80, %58
  %64 = load i8*, i8** %6, align 8
  %65 = load i8, i8* %64, align 1
  %66 = sext i8 %65 to i32
  %67 = icmp ne i32 %66, 0
  br i1 %67, label %68, label %83

68:                                               ; preds = %63
  %69 = load i8*, i8** %6, align 8
  %70 = load i8, i8* %69, align 1
  %71 = sext i8 %70 to i32
  %72 = icmp eq i32 %71, 32
  br i1 %72, label %73, label %74

73:                                               ; preds = %68
  br label %80

74:                                               ; preds = %68
  %75 = load i8*, i8** %6, align 8
  %76 = load i8, i8* %75, align 1
  %77 = sext i8 %76 to i32
  %78 = call i32 (i8*, ...) @printf(i8* getelementptr inbounds ([3 x i8], [3 x i8]* @.str.1, i64 0, i64 0), i32 %77)
  br label %79

79:                                               ; preds = %74
  br label %80

80:                                               ; preds = %79, %73
  %81 = load i8*, i8** %6, align 8
  %82 = getelementptr inbounds i8, i8* %81, i32 1
  store i8* %82, i8** %6, align 8
  br label %63

83:                                               ; preds = %63
  br label %84

84:                                               ; preds = %83, %54
  %85 = load i8*, i8** %5, align 8
  %86 = load i8*, i8** %7, align 8
  %87 = icmp ne i8* %85, %86
  br i1 %87, label %88, label %93

88:                                               ; preds = %84
  %89 = load i8*, i8** %5, align 8
  %90 = load i8, i8* %89, align 1
  %91 = sext i8 %90 to i32
  %92 = call i32 (i8*, ...) @printf(i8* getelementptr inbounds ([3 x i8], [3 x i8]* @.str.1, i64 0, i64 0), i32 %91)
  br label %93

93:                                               ; preds = %88, %84
  br label %94

94:                                               ; preds = %93
  %95 = load i8*, i8** %5, align 8
  %96 = getelementptr inbounds i8, i8* %95, i32 1
  store i8* %96, i8** %5, align 8
  br label %47

97:                                               ; preds = %47
  %98 = call i32 (i8*, ...) @printf(i8* getelementptr inbounds ([2 x i8], [2 x i8]* @.str.2, i64 0, i64 0))
  br label %9

99:                                               ; preds = %9
  ret void
}

declare dso_local i32 @__isoc99_scanf(i8*, ...) #1

declare dso_local i32 @gets(...) #1

; Function Attrs: nounwind readonly
declare dso_local i64 @strlen(i8*) #2

declare dso_local i32 @printf(i8*, ...) #1


!llvm.module.flags = !{!0}
!llvm.ident = !{!1}

!0 = !{i32 1, !"wchar_size", i32 4}
!1 = !{!"clang version 10.0.0-4ubuntu1 "}
