; ModuleID = 'source-C-CXX/19/573.c'
source_filename = "source-C-CXX/19/573.c"
target datalayout = "e-m:e-p270:32:32-p271:32:32-p272:64:64-i64:64-f80:128-n8:16:32:64-S128"
target triple = "x86_64-pc-linux-gnu"

@.str = private unnamed_addr constant [3 x i8] c"%s\00", align 1

; Function Attrs: nounwind sspstrong uwtable
define dso_local void @main() local_unnamed_addr #0 {
  %1 = alloca [1000 x i8], align 16
  %2 = alloca [1000 x i8], align 16
  %3 = getelementptr inbounds [1000 x i8], [1000 x i8]* %1, i64 0, i64 0
  call void @llvm.lifetime.start.p0i8(i64 1000, i8* nonnull %3) #6
  %4 = getelementptr inbounds [1000 x i8], [1000 x i8]* %2, i64 0, i64 0
  call void @llvm.lifetime.start.p0i8(i64 1000, i8* nonnull %4) #6
  %5 = call i32 (i8*, ...) @__isoc99_scanf(i8* getelementptr inbounds ([3 x i8], [3 x i8]* @.str, i64 0, i64 0), i8* nonnull %3)
  %6 = icmp eq i32 %5, -1
  br i1 %6, label %63, label %7

7:                                                ; preds = %0
  %8 = getelementptr inbounds [1000 x i8], [1000 x i8]* %1, i64 0, i64 1
  br label %9

9:                                                ; preds = %7, %58
  %10 = phi i8* [ %59, %58 ], [ undef, %7 ]
  %11 = call i32 (i8*, ...) bitcast (i32 (...)* @gets to i32 (i8*, ...)*)(i8* nonnull %4) #6
  %12 = call i64 @strlen(i8* noundef nonnull %3) #7
  %13 = load i8, i8* %3, align 16, !tbaa !5
  %14 = shl i64 %12, 32
  %15 = ashr exact i64 %14, 32
  %16 = getelementptr inbounds [1000 x i8], [1000 x i8]* %1, i64 0, i64 %15
  %17 = icmp sgt i64 %14, 0
  br i1 %17, label %18, label %58

18:                                               ; preds = %9
  %19 = icmp sgt i64 %14, 4294967296
  br i1 %19, label %22, label %20, !llvm.loop !8

20:                                               ; preds = %22, %18
  %21 = phi i8* [ %10, %18 ], [ %31, %22 ]
  br i1 %17, label %34, label %58

22:                                               ; preds = %18, %22
  %23 = phi i8* [ %32, %22 ], [ %8, %18 ]
  %24 = phi i8* [ %31, %22 ], [ %10, %18 ]
  %25 = phi i1 [ %30, %22 ], [ false, %18 ]
  %26 = phi i8 [ %28, %22 ], [ %13, %18 ]
  %27 = phi i8 [ %29, %22 ], [ %13, %18 ]
  %28 = select i1 %25, i8 %27, i8 %26
  %29 = load i8, i8* %23, align 1, !tbaa !5
  %30 = icmp slt i8 %28, %29
  %31 = select i1 %30, i8* %23, i8* %24
  %32 = getelementptr inbounds i8, i8* %23, i64 1
  %33 = icmp ult i8* %32, %16
  br i1 %33, label %22, label %20, !llvm.loop !8

34:                                               ; preds = %20, %54
  %35 = phi i8* [ %55, %54 ], [ %4, %20 ]
  %36 = phi i8* [ %56, %54 ], [ %3, %20 ]
  %37 = icmp eq i8* %36, %21
  br i1 %37, label %38, label %50

38:                                               ; preds = %34
  %39 = load i8, i8* %21, align 1, !tbaa !5
  %40 = sext i8 %39 to i32
  %41 = call i32 @putchar(i32 %40)
  br label %42

42:                                               ; preds = %48, %38
  %43 = phi i8* [ %35, %38 ], [ %49, %48 ]
  %44 = load i8, i8* %43, align 1, !tbaa !5
  switch i8 %44, label %45 [
    i8 0, label %54
    i8 32, label %48
  ]

45:                                               ; preds = %42
  %46 = sext i8 %44 to i32
  %47 = call i32 @putchar(i32 %46)
  br label %48

48:                                               ; preds = %42, %45
  %49 = getelementptr inbounds i8, i8* %43, i64 1
  br label %42, !llvm.loop !10

50:                                               ; preds = %34
  %51 = load i8, i8* %36, align 1, !tbaa !5
  %52 = sext i8 %51 to i32
  %53 = call i32 @putchar(i32 %52)
  br label %54

54:                                               ; preds = %42, %50
  %55 = phi i8* [ %35, %50 ], [ %43, %42 ]
  %56 = getelementptr inbounds i8, i8* %36, i64 1
  %57 = icmp ult i8* %56, %16
  br i1 %57, label %34, label %58, !llvm.loop !11

58:                                               ; preds = %54, %9, %20
  %59 = phi i8* [ %21, %20 ], [ %10, %9 ], [ %21, %54 ]
  %60 = call i32 @putchar(i32 10)
  %61 = call i32 (i8*, ...) @__isoc99_scanf(i8* getelementptr inbounds ([3 x i8], [3 x i8]* @.str, i64 0, i64 0), i8* nonnull %3)
  %62 = icmp eq i32 %61, -1
  br i1 %62, label %63, label %9, !llvm.loop !12

63:                                               ; preds = %58, %0
  call void @llvm.lifetime.end.p0i8(i64 1000, i8* nonnull %4) #6
  call void @llvm.lifetime.end.p0i8(i64 1000, i8* nonnull %3) #6
  ret void
}

; Function Attrs: argmemonly mustprogress nofree nosync nounwind willreturn
declare void @llvm.lifetime.start.p0i8(i64 immarg, i8* nocapture) #1

; Function Attrs: nofree nounwind
declare noundef i32 @__isoc99_scanf(i8* nocapture noundef readonly, ...) local_unnamed_addr #2

declare i32 @gets(...) local_unnamed_addr #3

; Function Attrs: argmemonly mustprogress nofree nounwind readonly willreturn
declare i64 @strlen(i8* nocapture) local_unnamed_addr #4

; Function Attrs: argmemonly mustprogress nofree nosync nounwind willreturn
declare void @llvm.lifetime.end.p0i8(i64 immarg, i8* nocapture) #1

; Function Attrs: nofree nounwind
declare noundef i32 @putchar(i32 noundef) local_unnamed_addr #5


!llvm.module.flags = !{!0, !1, !2, !3}
!llvm.ident = !{!4}

!0 = !{i32 1, !"wchar_size", i32 4}
!1 = !{i32 7, !"PIC Level", i32 2}
!2 = !{i32 7, !"PIE Level", i32 2}
!3 = !{i32 7, !"uwtable", i32 1}
!4 = !{!"clang version 13.0.0"}
!5 = !{!6, !6, i64 0}
!6 = !{!"omnipotent char", !7, i64 0}
!7 = !{!"Simple C/C++ TBAA"}
!8 = distinct !{!8, !9}
!9 = !{!"llvm.loop.mustprogress"}
!10 = distinct !{!10, !9}
!11 = distinct !{!11, !9}
!12 = distinct !{!12, !9}
